; Function Attrs: mustprogress uwtable
define dso_local noundef nonnull align 8 dereferenceable(136) ptr @_ZNK23FunctionInvocationUnary8get_typeEv(ptr nocapture noundef nonnull readonly align 8 dereferenceable(96) %0) unnamed_addr #3 align 2 {
  %2 = getelementptr inbounds i8, ptr %0, i64 56
  %3 = load i32, ptr %2, align 8
  switch i32 %3, label %14 [
    i32 0, label %4
    i32 1, label %4
    i32 3, label %4
    i32 2, label %12
  ]

4:                                                ; preds = %1, %1, %1
  %5 = getelementptr inbounds i8, ptr %0, i64 16
  %6 = load ptr, ptr %5, align 8
  %7 = load ptr, ptr %6, align 8
  %8 = load ptr, ptr %7, align 8
  %9 = getelementptr inbounds i8, ptr %8, i64 24
  %10 = load ptr, ptr %9, align 8
  %11 = tail call noundef nonnull align 8 dereferenceable(136) ptr %10(ptr noundef nonnull align 8 dereferenceable(24) %7)
  br label %16

12:                                               ; preds = %1
  %13 = tail call noundef nonnull align 8 dereferenceable(136) ptr @_ZN4Type15get_simple_typeE11eSimpleType(i32 noundef 2)
  br label %16

14:                                               ; preds = %1
  %15 = tail call noundef nonnull align 8 dereferenceable(136) ptr @_ZN4Type15get_simple_typeE11eSimpleType(i32 noundef 2)
  br label %16

16:                                               ; preds = %14, %12, %4
  %.0 = phi ptr [ %15, %14 ], [ %13, %12 ], [ %11, %4 ]
  ret ptr %.0
}